target datalayout = "e-m:e-p270:32:32-p271:32:32-p272:64:64-i64:64-i128:128-f80:128-n8:16:32:64-S128"
target triple = "x86_64-pc-linux-gnu"

%"class.llvm::SmallVectorBase" = type { ptr, i32, i32 }
%"class.llvm::ilist_node_base" = type { %"class.llvm::ilist_detail::node_base_prevnext" }
%"class.llvm::ilist_detail::node_base_prevnext" = type { ptr, ptr }
%"class.llvm::BumpPtrAllocatorImpl" = type { ptr, ptr, %"class.llvm::SmallVector.58", %"class.llvm::SmallVector.63", i64, i64 }
%"class.llvm::SmallVector.58" = type { %"class.llvm::SmallVectorImpl.59", %"struct.llvm::SmallVectorStorage.62" }
%"class.llvm::SmallVectorImpl.59" = type { %"class.llvm::SmallVectorTemplateBase.60" }
%"class.llvm::SmallVectorTemplateBase.60" = type { %"class.llvm::SmallVectorTemplateCommon.61" }
%"class.llvm::SmallVectorTemplateCommon.61" = type { %"class.llvm::SmallVectorBase" }
%"struct.llvm::SmallVectorStorage.62" = type { [32 x i8] }
%"class.llvm::SmallVector.63" = type { %"class.llvm::SmallVectorImpl.64" }
%"class.llvm::SmallVectorImpl.64" = type { %"class.llvm::SmallVectorTemplateBase.65" }
%"class.llvm::SmallVectorTemplateBase.65" = type { %"class.llvm::SmallVectorTemplateCommon.66" }
%"class.llvm::SmallVectorTemplateCommon.66" = type { %"class.llvm::SmallVectorBase" }
%"struct.std::_Rb_tree_header" = type { %"struct.std::_Rb_tree_node_base", i64 }
%"struct.std::_Rb_tree_node_base" = type { i32, ptr, ptr, ptr }
%"class.llvm::SelectionDAG" = type { ptr, ptr, ptr, ptr, ptr, ptr, ptr, ptr, ptr, i32, ptr, ptr, ptr, ptr, ptr, ptr, %"class.llvm::FoldingSet", %"class.llvm::BumpPtrAllocatorImpl", %"class.llvm::SDNode", %"class.llvm::SDValue", %"class.llvm::iplist.327", %"class.llvm::RecyclingAllocator", %"class.llvm::FoldingSet.337", %"class.llvm::BumpPtrAllocatorImpl", %"class.llvm::ArrayRecycler.339", ptr, %"class.llvm::DenseMap.345", i16, i8, ptr, %"class.std::vector.348", %"class.std::vector.353", %"class.std::map.358", %"class.llvm::StringMap.364", %"class.std::map.365", %"class.llvm::DenseMap.371", ptr }
%"class.llvm::FoldingSet" = type { %"class.llvm::FoldingSetImpl" }
%"class.llvm::FoldingSetImpl" = type { %"class.llvm::FoldingSetBase" }
%"class.llvm::FoldingSetBase" = type { ptr, i32, i32 }
%"class.llvm::SDNode" = type { %"class.llvm::FoldingSetBase::Node", %"class.llvm::ilist_node.323", i32, %"struct.llvm::SDNodeFlags", %union.anon.326, i16, i32, ptr, ptr, ptr, i16, i16, i32, %"class.llvm::DebugLoc", i32, i32 }
%"class.llvm::FoldingSetBase::Node" = type { ptr }
%"class.llvm::ilist_node.323" = type { %"class.llvm::ilist_node_impl.324" }
%"class.llvm::ilist_node_impl.324" = type { %"class.llvm::ilist_node_base" }
%"struct.llvm::SDNodeFlags" = type { i16 }
%union.anon.326 = type { %"class.llvm::SDNode::LSBaseSDNodeBitfields" }
%"class.llvm::SDNode::LSBaseSDNodeBitfields" = type { i16 }
%"class.llvm::DebugLoc" = type { %"class.llvm::TypedTrackingMDRef" }
%"class.llvm::TypedTrackingMDRef" = type { %"class.llvm::TrackingMDRef" }
%"class.llvm::TrackingMDRef" = type { ptr }
%"class.llvm::SDValue" = type <{ ptr, i32, [4 x i8] }>
%"class.llvm::iplist.327" = type { %"class.llvm::iplist_impl.328" }
%"class.llvm::iplist_impl.328" = type { %"class.llvm::simple_ilist.333" }
%"class.llvm::simple_ilist.333" = type { %"class.llvm::ilist_sentinel.335" }
%"class.llvm::ilist_sentinel.335" = type { %"class.llvm::ilist_node_impl.324" }
%"class.llvm::RecyclingAllocator" = type { %"class.llvm::Recycler.336", %"class.llvm::BumpPtrAllocatorImpl" }
%"class.llvm::Recycler.336" = type { ptr }
%"class.llvm::FoldingSet.337" = type { %"class.llvm::FoldingSetImpl.338" }
%"class.llvm::FoldingSetImpl.338" = type { %"class.llvm::FoldingSetBase" }
%"class.llvm::ArrayRecycler.339" = type { %"class.llvm::SmallVector.340" }
%"class.llvm::SmallVector.340" = type { %"class.llvm::SmallVectorImpl.341", %"struct.llvm::SmallVectorStorage.344" }
%"class.llvm::SmallVectorImpl.341" = type { %"class.llvm::SmallVectorTemplateBase.342" }
%"class.llvm::SmallVectorTemplateBase.342" = type { %"class.llvm::SmallVectorTemplateCommon.343" }
%"class.llvm::SmallVectorTemplateCommon.343" = type { %"class.llvm::SmallVectorBase" }
%"struct.llvm::SmallVectorStorage.344" = type { [64 x i8] }
%"class.llvm::DenseMap.345" = type <{ ptr, i32, i32, i32, [4 x i8] }>
%"class.std::vector.348" = type { %"struct.std::_Vector_base.349" }
%"struct.std::_Vector_base.349" = type { %"struct.std::_Vector_base<llvm::CondCodeSDNode *, std::allocator<llvm::CondCodeSDNode *>>::_Vector_impl" }
%"struct.std::_Vector_base<llvm::CondCodeSDNode *, std::allocator<llvm::CondCodeSDNode *>>::_Vector_impl" = type { %"struct.std::_Vector_base<llvm::CondCodeSDNode *, std::allocator<llvm::CondCodeSDNode *>>::_Vector_impl_data" }
%"struct.std::_Vector_base<llvm::CondCodeSDNode *, std::allocator<llvm::CondCodeSDNode *>>::_Vector_impl_data" = type { ptr, ptr, ptr }
%"class.std::vector.353" = type { %"struct.std::_Vector_base.354" }
%"struct.std::_Vector_base.354" = type { %"struct.std::_Vector_base<llvm::SDNode *, std::allocator<llvm::SDNode *>>::_Vector_impl" }
%"struct.std::_Vector_base<llvm::SDNode *, std::allocator<llvm::SDNode *>>::_Vector_impl" = type { %"struct.std::_Vector_base<llvm::SDNode *, std::allocator<llvm::SDNode *>>::_Vector_impl_data" }
%"struct.std::_Vector_base<llvm::SDNode *, std::allocator<llvm::SDNode *>>::_Vector_impl_data" = type { ptr, ptr, ptr }
%"class.std::map.358" = type { %"class.std::_Rb_tree.359" }
%"class.std::_Rb_tree.359" = type { %"struct.std::_Rb_tree<llvm::EVT, std::pair<const llvm::EVT, llvm::SDNode *>, std::_Select1st<std::pair<const llvm::EVT, llvm::SDNode *>>, llvm::EVT::compareRawBits>::_Rb_tree_impl" }
%"struct.std::_Rb_tree<llvm::EVT, std::pair<const llvm::EVT, llvm::SDNode *>, std::_Select1st<std::pair<const llvm::EVT, llvm::SDNode *>>, llvm::EVT::compareRawBits>::_Rb_tree_impl" = type { [8 x i8], %"struct.std::_Rb_tree_header" }
%"class.llvm::StringMap.364" = type { %"class.llvm::StringMapImpl" }
%"class.llvm::StringMapImpl" = type { ptr, i32, i32, i32, i32 }
%"class.std::map.365" = type { %"class.std::_Rb_tree.366" }
%"class.std::_Rb_tree.366" = type { %"struct.std::_Rb_tree<std::pair<std::__cxx11::basic_string<char>, unsigned int>, std::pair<const std::pair<std::__cxx11::basic_string<char>, unsigned int>, llvm::SDNode *>, std::_Select1st<std::pair<const std::pair<std::__cxx11::basic_string<char>, unsigned int>, llvm::SDNode *>>, std::less<std::pair<std::__cxx11::basic_string<char>, unsigned int>>>::_Rb_tree_impl" }
%"struct.std::_Rb_tree<std::pair<std::__cxx11::basic_string<char>, unsigned int>, std::pair<const std::pair<std::__cxx11::basic_string<char>, unsigned int>, llvm::SDNode *>, std::_Select1st<std::pair<const std::pair<std::__cxx11::basic_string<char>, unsigned int>, llvm::SDNode *>>, std::less<std::pair<std::__cxx11::basic_string<char>, unsigned int>>>::_Rb_tree_impl" = type { [8 x i8], %"struct.std::_Rb_tree_header" }
%"class.llvm::DenseMap.371" = type <{ ptr, i32, i32, i32, [4 x i8] }>
%"struct.llvm::SelectionDAG::DAGUpdateListener" = type { ptr, ptr, ptr }

@_ZTVN4llvm12SelectionDAG17DAGUpdateListenerE = external unnamed_addr constant { [7 x ptr] }, align 8

; Function Attrs: mustprogress nounwind uwtable
define linkonce_odr hidden void @_ZN4llvm12SelectionDAG17DAGUpdateListenerD2Ev(ptr noundef nonnull align 8 dereferenceable(24) %0) unnamed_addr #1 comdat align 2 {
  %2 = alloca ptr, align 8
  store ptr %0, ptr %2, align 8
  %3 = load ptr, ptr %2, align 8
  store ptr getelementptr inbounds inrange(-16, 40) ({ [7 x ptr] }, ptr @_ZTVN4llvm12SelectionDAG17DAGUpdateListenerE, i32 0, i32 0, i32 2), ptr %3, align 8
  %4 = getelementptr inbounds nuw %"struct.llvm::SelectionDAG::DAGUpdateListener", ptr %3, i32 0, i32 1
  %5 = load ptr, ptr %4, align 8
  %6 = getelementptr inbounds nuw %"struct.llvm::SelectionDAG::DAGUpdateListener", ptr %3, i32 0, i32 2
  %7 = load ptr, ptr %6, align 8
  %8 = getelementptr inbounds nuw %"class.llvm::SelectionDAG", ptr %7, i32 0, i32 29
  store ptr %5, ptr %8, align 8
  ret void
}

; Function Attrs: mustprogress nounwind uwtable
define internal void @_ZN12_GLOBAL__N_111ISelUpdaterD2Ev(ptr noundef nonnull align 8 dereferenceable(32) %0) unnamed_addr #1 align 2 {
  %2 = alloca ptr, align 8
  store ptr %0, ptr %2, align 8
  %3 = load ptr, ptr %2, align 8
  call void @_ZN4llvm12SelectionDAG17DAGUpdateListenerD2Ev(ptr noundef nonnull align 8 dereferenceable(24) %3) #2
  ret void
}